target datalayout = "e-m:e-p270:32:32-p271:32:32-p272:64:64-i64:64-i128:128-f80:128-n8:16:32:64-S128"
target triple = "x86_64-pc-linux-gnu"

%struct.FunctionCallInfoBaseData = type { ptr, ptr, ptr, i32, i8, i16, [0 x %struct.NullableDatum] }
%struct.NullableDatum = type { i64, i8 }
%struct.lconv = type { ptr, ptr, ptr, ptr, ptr, ptr, ptr, ptr, ptr, ptr, i8, i8, i8, i8, i8, i8, i8, i8, i8, i8, i8, i8, i8, i8 }

; Function Attrs: inlinehint nounwind uwtable
define internal i64 @PointerGetDatum(ptr noundef %0) #2 {
  %2 = alloca ptr, align 8
  store ptr %0, ptr %2, align 8
  %3 = load ptr, ptr %2, align 8
  %4 = ptrtoint ptr %3 to i64
  ret i64 %4
}

; Function Attrs: inlinehint nounwind uwtable
define internal i64 @DatumGetInt64(i64 noundef %0) #2 {
  %2 = alloca i64, align 8
  store i64 %0, ptr %2, align 8
  %3 = load i64, ptr %2, align 8
  ret i64 %3
}

; Function Attrs: inlinehint nounwind uwtable
define internal i64 @Int32GetDatum(i32 noundef %0) #2 {
  %2 = alloca i32, align 4
  store i32 %0, ptr %2, align 4
  %3 = load i32, ptr %2, align 4
  %4 = sext i32 %3 to i64
  ret i64 %4
}

; Function Attrs: inlinehint nounwind uwtable
define internal i64 @NumericGetDatum(ptr noundef %0) #2 {
  %2 = alloca ptr, align 8
  store ptr %0, ptr %2, align 8
  %3 = load ptr, ptr %2, align 8
  %4 = call i64 @PointerGetDatum(ptr noundef %3)
  ret i64 %4
}

; Function Attrs: inlinehint nounwind uwtable
define internal i64 @DatumGetCash(i64 noundef %0) #2 {
  %2 = alloca i64, align 8
  store i64 %0, ptr %2, align 8
  %3 = load i64, ptr %2, align 8
  %4 = call i64 @DatumGetInt64(i64 noundef %3)
  ret i64 %4
}

; Function Attrs: nounwind uwtable
define dso_local i64 @cash_numeric(ptr noundef %0) #0 {
  %2 = alloca ptr, align 8
  %3 = alloca i64, align 8
  %4 = alloca i64, align 8
  %5 = alloca i32, align 4
  %6 = alloca ptr, align 8
  %7 = alloca i64, align 8
  %8 = alloca i32, align 4
  %9 = alloca i64, align 8
  %10 = alloca i64, align 8
  store ptr %0, ptr %2, align 8
  call void @llvm.lifetime.start.p0(i64 8, ptr %3) #11
  %11 = load ptr, ptr %2, align 8
  %12 = getelementptr inbounds nuw %struct.FunctionCallInfoBaseData, ptr %11, i32 0, i32 6
  %13 = getelementptr inbounds [0 x %struct.NullableDatum], ptr %12, i64 0, i64 0
  %14 = getelementptr inbounds nuw %struct.NullableDatum, ptr %13, i32 0, i32 0
  %15 = load i64, ptr %14, align 8
  %16 = call i64 @DatumGetCash(i64 noundef %15)
  store i64 %16, ptr %3, align 8
  call void @llvm.lifetime.start.p0(i64 8, ptr %4) #11
  call void @llvm.lifetime.start.p0(i64 4, ptr %5) #11
  call void @llvm.lifetime.start.p0(i64 8, ptr %6) #11
  %17 = call ptr @PGLC_localeconv()
  store ptr %17, ptr %6, align 8
  %18 = load ptr, ptr %6, align 8
  %19 = getelementptr inbounds nuw %struct.lconv, ptr %18, i32 0, i32 11
  %20 = load i8, ptr %19, align 1
  %21 = sext i8 %20 to i32
  store i32 %21, ptr %5, align 4
  %22 = load i32, ptr %5, align 4
  %23 = icmp slt i32 %22, 0
  br i1 %23, label %27, label %24

24:                                               ; preds = %1
  %25 = load i32, ptr %5, align 4
  %26 = icmp sgt i32 %25, 10
  br i1 %26, label %27, label %28

27:                                               ; preds = %24, %1
  store i32 2, ptr %5, align 4
  br label %28

28:                                               ; preds = %27, %24
  %29 = load i64, ptr %3, align 8
  %30 = call ptr @int64_to_numeric(i64 noundef %29)
  %31 = call i64 @NumericGetDatum(ptr noundef %30)
  store i64 %31, ptr %4, align 8
  %32 = load i32, ptr %5, align 4
  %33 = icmp sgt i32 %32, 0
  br i1 %33, label %34, label %60

34:                                               ; preds = %28
  call void @llvm.lifetime.start.p0(i64 8, ptr %7) #11
  call void @llvm.lifetime.start.p0(i64 4, ptr %8) #11
  call void @llvm.lifetime.start.p0(i64 8, ptr %9) #11
  call void @llvm.lifetime.start.p0(i64 8, ptr %10) #11
  store i64 1, ptr %7, align 8
  store i32 0, ptr %8, align 4
  br label %35

35:                                               ; preds = %42, %34
  %36 = load i32, ptr %8, align 4
  %37 = load i32, ptr %5, align 4
  %38 = icmp slt i32 %36, %37
  br i1 %38, label %39, label %45

39:                                               ; preds = %35
  %40 = load i64, ptr %7, align 8
  %41 = mul i64 %40, 10
  store i64 %41, ptr %7, align 8
  br label %42

42:                                               ; preds = %39
  %43 = load i32, ptr %8, align 4
  %44 = add i32 %43, 1
  store i32 %44, ptr %8, align 4
  br label %35, !llvm.loop !16

45:                                               ; preds = %35
  %46 = load i64, ptr %7, align 8
  %47 = call ptr @int64_to_numeric(i64 noundef %46)
  %48 = call i64 @NumericGetDatum(ptr noundef %47)
  store i64 %48, ptr %9, align 8
  %49 = load i64, ptr %9, align 8
  %50 = load i32, ptr %5, align 4
  %51 = call i64 @Int32GetDatum(i32 noundef %50)
  %52 = call i64 @DirectFunctionCall2Coll(ptr noundef @numeric_round, i32 noundef 0, i64 noundef %49, i64 noundef %51)
  store i64 %52, ptr %9, align 8
  %53 = load i64, ptr %4, align 8
  %54 = load i64, ptr %9, align 8
  %55 = call i64 @DirectFunctionCall2Coll(ptr noundef @numeric_div, i32 noundef 0, i64 noundef %53, i64 noundef %54)
  store i64 %55, ptr %10, align 8
  %56 = load i64, ptr %10, align 8
  %57 = load i32, ptr %5, align 4
  %58 = call i64 @Int32GetDatum(i32 noundef %57)
  %59 = call i64 @DirectFunctionCall2Coll(ptr noundef @numeric_round, i32 noundef 0, i64 noundef %56, i64 noundef %58)
  store i64 %59, ptr %4, align 8
  call void @llvm.lifetime.end.p0(i64 8, ptr %10) #11
  call void @llvm.lifetime.end.p0(i64 8, ptr %9) #11
  call void @llvm.lifetime.end.p0(i64 4, ptr %8) #11
  call void @llvm.lifetime.end.p0(i64 8, ptr %7) #11
  br label %60

60:                                               ; preds = %45, %28
  %61 = load i64, ptr %4, align 8
  call void @llvm.lifetime.end.p0(i64 8, ptr %6) #11
  call void @llvm.lifetime.end.p0(i64 4, ptr %5) #11
  call void @llvm.lifetime.end.p0(i64 8, ptr %4) #11
  call void @llvm.lifetime.end.p0(i64 8, ptr %3) #11
  ret i64 %61
}