; Function Attrs: nounwind uwtable
define dso_local i64 @cash_numeric(ptr noundef readonly captures(none) %0) local_unnamed_addr #0 {
  %2 = getelementptr inbounds nuw i8, ptr %0, i64 32
  %3 = load i64, ptr %2, align 8
  %4 = tail call ptr @PGLC_localeconv() #13
  %5 = getelementptr inbounds nuw i8, ptr %4, i64 81
  %6 = load i8, ptr %5, align 1
  %or.cond = icmp ugt i8 %6, 10
  %narrow = select i1 %or.cond, i8 2, i8 %6
  %spec.store.select = sext i8 %narrow to i32
  %7 = tail call ptr @int64_to_numeric(i64 noundef %3) #13
  %8 = ptrtoint ptr %7 to i64
  %9 = icmp sgt i8 %narrow, 0
  br i1 %9, label %.preheader, label %19

.preheader:                                       ; preds = %1, %.preheader
  %.01821 = phi i32 [ %11, %.preheader ], [ 0, %1 ]
  %.01920 = phi i64 [ %10, %.preheader ], [ 1, %1 ]
  %10 = mul i64 %.01920, 10
  %11 = add nuw nsw i32 %.01821, 1
  %exitcond.not = icmp eq i32 %11, %spec.store.select
  br i1 %exitcond.not, label %12, label %.preheader, !llvm.loop !18

12:                                               ; preds = %.preheader
  %13 = tail call ptr @int64_to_numeric(i64 noundef %10) #13
  %14 = ptrtoint ptr %13 to i64
  %15 = zext nneg i8 %narrow to i64
  %16 = tail call i64 @DirectFunctionCall2Coll(ptr noundef nonnull @numeric_round, i32 noundef 0, i64 noundef %14, i64 noundef %15) #13
  %17 = tail call i64 @DirectFunctionCall2Coll(ptr noundef nonnull @numeric_div, i32 noundef 0, i64 noundef %8, i64 noundef %16) #13
  %18 = tail call i64 @DirectFunctionCall2Coll(ptr noundef nonnull @numeric_round, i32 noundef 0, i64 noundef %17, i64 noundef %15) #13
  br label %19

19:                                               ; preds = %12, %1
  %.0 = phi i64 [ %18, %12 ], [ %8, %1 ]
  ret i64 %.0
}